; ModuleID = '30/1511.cpp'
source_filename = "30/1511.cpp"
target datalayout = "e-m:e-p270:32:32-p271:32:32-p272:64:64-i64:64-f80:128-n8:16:32:64-S128"
target triple = "x86_64-pc-linux-gnu"

%"class.std::ios_base::Init" = type { i8 }
%"class.std::basic_istream" = type { i32 (...)**, i64, %"class.std::basic_ios" }
%"class.std::basic_ios" = type { %"class.std::ios_base", %"class.std::basic_ostream"*, i8, i8, %"class.std::basic_streambuf"*, %"class.std::ctype"*, %"class.std::num_put"*, %"class.std::num_get"* }
%"class.std::ios_base" = type { i32 (...)**, i64, i64, i32, i32, i32, %"struct.std::ios_base::_Callback_list"*, %"struct.std::ios_base::_Words", [8 x %"struct.std::ios_base::_Words"], i32, %"struct.std::ios_base::_Words"*, %"class.std::locale" }
%"struct.std::ios_base::_Callback_list" = type { %"struct.std::ios_base::_Callback_list"*, void (i32, %"class.std::ios_base"*, i32)*, i32, i32 }
%"struct.std::ios_base::_Words" = type { i8*, i64 }
%"class.std::locale" = type { %"class.std::locale::_Impl"* }
%"class.std::locale::_Impl" = type { i32, %"class.std::locale::facet"**, i64, %"class.std::locale::facet"**, i8** }
%"class.std::locale::facet" = type <{ i32 (...)**, i32, [4 x i8] }>
%"class.std::basic_ostream" = type { i32 (...)**, %"class.std::basic_ios" }
%"class.std::basic_streambuf" = type { i32 (...)**, i8*, i8*, i8*, i8*, i8*, i8*, %"class.std::locale" }
%"class.std::ctype" = type <{ %"class.std::locale::facet.base", [4 x i8], %struct.__locale_struct*, i8, [7 x i8], i32*, i32*, i16*, i8, [256 x i8], [256 x i8], i8, [6 x i8] }>
%"class.std::locale::facet.base" = type <{ i32 (...)**, i32 }>
%struct.__locale_struct = type { [13 x %struct.__locale_data*], i16*, i32*, i32*, [13 x i8*] }
%struct.__locale_data = type opaque
%"class.std::num_put" = type { %"class.std::locale::facet.base", [4 x i8] }
%"class.std::num_get" = type { %"class.std::locale::facet.base", [4 x i8] }

$_ZSt4fmodIdiEN9__gnu_cxx11__promote_2IT_T0_NS0_9__promoteIS2_Xsr3std12__is_integerIS2_EE7__valueEE6__typeENS4_IS3_Xsr3std12__is_integerIS3_EE7__valueEE6__typeEE6__typeES2_S3_ = comdat any

@_ZStL8__ioinit = internal global %"class.std::ios_base::Init" zeroinitializer, align 1
@__dso_handle = external hidden global i8
@_ZSt3cin = external dso_local global %"class.std::basic_istream", align 8
@_ZSt4cout = external dso_local global %"class.std::basic_ostream", align 8
@llvm.global_ctors = appending global [1 x { i32, void ()*, i8* }] [{ i32, void ()*, i8* } { i32 65535, void ()* @_GLOBAL__sub_I_1511.cpp, i8* null }]

; Function Attrs: noinline uwtable
define internal void @__cxx_global_var_init() #0 section ".text.startup" {
  call void @_ZNSt8ios_base4InitC1Ev(%"class.std::ios_base::Init"* @_ZStL8__ioinit)
  %1 = call i32 @__cxa_atexit(void (i8*)* bitcast (void (%"class.std::ios_base::Init"*)* @_ZNSt8ios_base4InitD1Ev to void (i8*)*), i8* getelementptr inbounds (%"class.std::ios_base::Init", %"class.std::ios_base::Init"* @_ZStL8__ioinit, i32 0, i32 0), i8* @__dso_handle) #3
  ret void
}

declare dso_local void @_ZNSt8ios_base4InitC1Ev(%"class.std::ios_base::Init"*) unnamed_addr #1

; Function Attrs: nounwind
declare dso_local void @_ZNSt8ios_base4InitD1Ev(%"class.std::ios_base::Init"*) unnamed_addr #2

; Function Attrs: nounwind
declare dso_local i32 @__cxa_atexit(void (i8*)*, i8*, i8*) #3

; Function Attrs: noinline norecurse uwtable
define dso_local i32 @main() #4 {
  %1 = alloca i32, align 4
  %2 = alloca double, align 8
  %3 = alloca double, align 8
  %4 = alloca double, align 8
  %5 = alloca double, align 8
  %6 = alloca double, align 8
  %7 = alloca double, align 8
  %8 = alloca double, align 8
  store i32 0, i32* %1, align 4
  %9 = call dereferenceable(280) %"class.std::basic_istream"* @_ZNSirsERd(%"class.std::basic_istream"* @_ZSt3cin, double* dereferenceable(8) %2)
  store double 0.000000e+00, double* %3, align 8
  store double 0.000000e+00, double* %8, align 8
  br label %10

10:                                               ; preds = %41, %0
  %11 = load double, double* %3, align 8
  %12 = load double, double* %2, align 8
  %13 = fcmp olt double %11, %12
  br i1 %13, label %14, label %42

14:                                               ; preds = %10
  %15 = load double, double* %3, align 8
  %16 = fadd double %15, 1.000000e+00
  store double %16, double* %3, align 8
  %17 = load double, double* %3, align 8
  %18 = call double @_ZSt4fmodIdiEN9__gnu_cxx11__promote_2IT_T0_NS0_9__promoteIS2_Xsr3std12__is_integerIS2_EE7__valueEE6__typeENS4_IS3_Xsr3std12__is_integerIS3_EE7__valueEE6__typeEE6__typeES2_S3_(double %17, i32 7)
  store double %18, double* %4, align 8
  %19 = load double, double* %3, align 8
  %20 = call double @_ZSt4fmodIdiEN9__gnu_cxx11__promote_2IT_T0_NS0_9__promoteIS2_Xsr3std12__is_integerIS2_EE7__valueEE6__typeENS4_IS3_Xsr3std12__is_integerIS3_EE7__valueEE6__typeEE6__typeES2_S3_(double %19, i32 10)
  store double %20, double* %5, align 8
  %21 = load double, double* %3, align 8
  %22 = fdiv double %21, 1.000000e+01
  store double %22, double* %7, align 8
  %23 = load double, double* %7, align 8
  %24 = call double @llvm.floor.f64(double %23)
  store double %24, double* %6, align 8
  %25 = load double, double* %4, align 8
  %26 = fcmp oeq double %25, 0.000000e+00
  br i1 %26, label %33, label %27

27:                                               ; preds = %14
  %28 = load double, double* %5, align 8
  %29 = fcmp oeq double %28, 7.000000e+00
  br i1 %29, label %33, label %30

30:                                               ; preds = %27
  %31 = load double, double* %6, align 8
  %32 = fcmp oeq double %31, 7.000000e+00
  br i1 %32, label %33, label %35

33:                                               ; preds = %30, %27, %14
  %34 = load double, double* %8, align 8
  store double %34, double* %8, align 8
  br label %41

35:                                               ; preds = %30
  %36 = load double, double* %8, align 8
  %37 = load double, double* %3, align 8
  %38 = load double, double* %3, align 8
  %39 = fmul double %37, %38
  %40 = fadd double %36, %39
  store double %40, double* %8, align 8
  br label %41

41:                                               ; preds = %35, %33
  br label %10

42:                                               ; preds = %10
  %43 = load double, double* %8, align 8
  %44 = call dereferenceable(272) %"class.std::basic_ostream"* @_ZNSolsEd(%"class.std::basic_ostream"* @_ZSt4cout, double %43)
  ret i32 0
}

declare dso_local dereferenceable(280) %"class.std::basic_istream"* @_ZNSirsERd(%"class.std::basic_istream"*, double* dereferenceable(8)) #1

; Function Attrs: noinline nounwind uwtable
define linkonce_odr dso_local double @_ZSt4fmodIdiEN9__gnu_cxx11__promote_2IT_T0_NS0_9__promoteIS2_Xsr3std12__is_integerIS2_EE7__valueEE6__typeENS4_IS3_Xsr3std12__is_integerIS3_EE7__valueEE6__typeEE6__typeES2_S3_(double %0, i32 %1) #5 comdat {
  %3 = alloca double, align 8
  %4 = alloca i32, align 4
  store double %0, double* %3, align 8
  store i32 %1, i32* %4, align 4
  %5 = load double, double* %3, align 8
  %6 = load i32, i32* %4, align 4
  %7 = sitofp i32 %6 to double
  %8 = call double @fmod(double %5, double %7) #3
  ret double %8
}

; Function Attrs: nounwind readnone speculatable willreturn
declare double @llvm.floor.f64(double) #6

declare dso_local dereferenceable(272) %"class.std::basic_ostream"* @_ZNSolsEd(%"class.std::basic_ostream"*, double) #1

; Function Attrs: nounwind
declare dso_local double @fmod(double, double) #2

; Function Attrs: noinline uwtable
define internal void @_GLOBAL__sub_I_1511.cpp() #0 section ".text.startup" {
  call void @__cxx_global_var_init()
  ret void
}


!llvm.module.flags = !{!0}
!llvm.ident = !{!1}

!0 = !{i32 1, !"wchar_size", i32 4}
!1 = !{!"clang version 10.0.0-4ubuntu1 "}
